; Function Attrs: nounwind uwtable
define noundef i32 @DSA_set0_key(ptr noundef captures(none) %0, ptr noundef %1, ptr noundef %2) local_unnamed_addr #0 {
  %.not = icmp eq ptr %1, null
  br i1 %.not, label %7, label %4

4:                                                ; preds = %3
  %5 = getelementptr inbounds nuw i8, ptr %0, i64 104
  %6 = load ptr, ptr %5, align 8, !tbaa !3
  tail call void @BN_free(ptr noundef %6) #7
  store ptr %1, ptr %5, align 8, !tbaa !3
  br label %7

7:                                                ; preds = %4, %3
  %.not10 = icmp eq ptr %2, null
  br i1 %.not10, label %11, label %8

8:                                                ; preds = %7
  %9 = getelementptr inbounds nuw i8, ptr %0, i64 112
  %10 = load ptr, ptr %9, align 8, !tbaa !20
  tail call void @BN_free(ptr noundef %10) #7
  store ptr %2, ptr %9, align 8, !tbaa !20
  br label %11

11:                                               ; preds = %8, %7
  %12 = getelementptr inbounds nuw i8, ptr %0, i64 192
  %13 = load i64, ptr %12, align 8, !tbaa !34
  %14 = add i64 %13, 1
  store i64 %14, ptr %12, align 8, !tbaa !34
  ret i32 1
}